target datalayout = "e-m:e-p270:32:32-p271:32:32-p272:64:64-i64:64-i128:128-f80:128-n8:16:32:64-S128"
target triple = "x86_64-pc-linux-gnu"

; Function Attrs: nounwind uwtable
define internal void @dc_predictor(ptr noundef %0, i64 noundef %1, i32 noundef %2, i32 noundef %3, ptr noundef %4, ptr noundef %5) #0 {
  %7 = alloca ptr, align 8
  %8 = alloca i64, align 8
  %9 = alloca i32, align 4
  %10 = alloca i32, align 4
  %11 = alloca ptr, align 8
  %12 = alloca ptr, align 8
  %13 = alloca i32, align 4
  %14 = alloca i32, align 4
  %15 = alloca i32, align 4
  %16 = alloca i32, align 4
  %17 = alloca i32, align 4
  store ptr %0, ptr %7, align 8
  store i64 %1, ptr %8, align 8
  store i32 %2, ptr %9, align 4
  store i32 %3, ptr %10, align 4
  store ptr %4, ptr %11, align 8
  store ptr %5, ptr %12, align 8
  store i32 0, ptr %16, align 4
  %18 = load i32, ptr %9, align 4
  %19 = load i32, ptr %10, align 4
  %20 = add nsw i32 %18, %19
  store i32 %20, ptr %17, align 4
  store i32 0, ptr %13, align 4
  br label %21

21:                                               ; preds = %34, %6
  %22 = load i32, ptr %13, align 4
  %23 = load i32, ptr %9, align 4
  %24 = icmp slt i32 %22, %23
  br i1 %24, label %25, label %37

25:                                               ; preds = %21
  %26 = load ptr, ptr %11, align 8
  %27 = load i32, ptr %13, align 4
  %28 = sext i32 %27 to i64
  %29 = getelementptr inbounds i8, ptr %26, i64 %28
  %30 = load i8, ptr %29, align 1
  %31 = zext i8 %30 to i32
  %32 = load i32, ptr %16, align 4
  %33 = add nsw i32 %32, %31
  store i32 %33, ptr %16, align 4
  br label %34

34:                                               ; preds = %25
  %35 = load i32, ptr %13, align 4
  %36 = add nsw i32 %35, 1
  store i32 %36, ptr %13, align 4
  br label %21, !llvm.loop !47

37:                                               ; preds = %21
  store i32 0, ptr %13, align 4
  br label %38

38:                                               ; preds = %51, %37
  %39 = load i32, ptr %13, align 4
  %40 = load i32, ptr %10, align 4
  %41 = icmp slt i32 %39, %40
  br i1 %41, label %42, label %54

42:                                               ; preds = %38
  %43 = load ptr, ptr %12, align 8
  %44 = load i32, ptr %13, align 4
  %45 = sext i32 %44 to i64
  %46 = getelementptr inbounds i8, ptr %43, i64 %45
  %47 = load i8, ptr %46, align 1
  %48 = zext i8 %47 to i32
  %49 = load i32, ptr %16, align 4
  %50 = add nsw i32 %49, %48
  store i32 %50, ptr %16, align 4
  br label %51

51:                                               ; preds = %42
  %52 = load i32, ptr %13, align 4
  %53 = add nsw i32 %52, 1
  store i32 %53, ptr %13, align 4
  br label %38, !llvm.loop !48

54:                                               ; preds = %38
  %55 = load i32, ptr %16, align 4
  %56 = load i32, ptr %17, align 4
  %57 = ashr i32 %56, 1
  %58 = add nsw i32 %55, %57
  %59 = load i32, ptr %17, align 4
  %60 = sdiv i32 %58, %59
  store i32 %60, ptr %15, align 4
  store i32 0, ptr %14, align 4
  br label %61

61:                                               ; preds = %74, %54
  %62 = load i32, ptr %14, align 4
  %63 = load i32, ptr %10, align 4
  %64 = icmp slt i32 %62, %63
  br i1 %64, label %65, label %77

65:                                               ; preds = %61
  %66 = load ptr, ptr %7, align 8
  %67 = load i32, ptr %15, align 4
  %68 = trunc i32 %67 to i8
  %69 = load i32, ptr %9, align 4
  %70 = sext i32 %69 to i64
  call void @llvm.memset.p0.i64(ptr align 1 %66, i8 %68, i64 %70, i1 false)
  %71 = load i64, ptr %8, align 8
  %72 = load ptr, ptr %7, align 8
  %73 = getelementptr inbounds i8, ptr %72, i64 %71
  store ptr %73, ptr %7, align 8
  br label %74

74:                                               ; preds = %65
  %75 = load i32, ptr %14, align 4
  %76 = add nsw i32 %75, 1
  store i32 %76, ptr %14, align 4
  br label %61, !llvm.loop !49

77:                                               ; preds = %61
  ret void
}

; Function Attrs: nounwind uwtable
define hidden void @aom_dc_predictor_16x16_c(ptr noundef %0, i64 noundef %1, ptr noundef %2, ptr noundef %3) #0 {
  %5 = alloca ptr, align 8
  %6 = alloca i64, align 8
  %7 = alloca ptr, align 8
  %8 = alloca ptr, align 8
  store ptr %0, ptr %5, align 8
  store i64 %1, ptr %6, align 8
  store ptr %2, ptr %7, align 8
  store ptr %3, ptr %8, align 8
  %9 = load ptr, ptr %5, align 8
  %10 = load i64, ptr %6, align 8
  %11 = load ptr, ptr %7, align 8
  %12 = load ptr, ptr %8, align 8
  call void @dc_predictor(ptr noundef %9, i64 noundef %10, i32 noundef 16, i32 noundef 16, ptr noundef %11, ptr noundef %12)
  ret void
}